target datalayout = "e-m:e-p270:32:32-p271:32:32-p272:64:64-i64:64-i128:128-f80:128-n8:16:32:64-S128"
target triple = "x86_64-pc-linux-gnu"

%"class.std::__cxx11::basic_string" = type { %"struct.std::__cxx11::basic_string<char>::_Alloc_hider", i64, %union.anon }
%"struct.std::__cxx11::basic_string<char>::_Alloc_hider" = type { ptr }
%union.anon = type { i64, [8 x i8] }
%"class.rocksdb::Status" = type { i8, i8, i8, i8, i8, i8, %"class.std::unique_ptr" }
%"class.std::unique_ptr" = type { %"struct.std::__uniq_ptr_data" }
%"struct.std::__uniq_ptr_data" = type { %"class.std::__uniq_ptr_impl" }
%"class.std::__uniq_ptr_impl" = type { %"class.std::tuple" }
%"class.std::tuple" = type { %"struct.std::_Tuple_impl" }
%"struct.std::_Tuple_impl" = type { %"struct.std::_Head_base.4" }
%"struct.std::_Head_base.4" = type { ptr }
%"class.std::vector.31" = type { %"struct.std::_Vector_base.32" }
%"struct.std::_Vector_base.32" = type { %"struct.std::_Vector_base<std::shared_ptr<rocksdb::EventListener>, std::allocator<std::shared_ptr<rocksdb::EventListener>>>::_Vector_impl" }
%"struct.std::_Vector_base<std::shared_ptr<rocksdb::EventListener>, std::allocator<std::shared_ptr<rocksdb::EventListener>>>::_Vector_impl" = type { %"struct.std::_Vector_base<std::shared_ptr<rocksdb::EventListener>, std::allocator<std::shared_ptr<rocksdb::EventListener>>>::_Vector_impl_data" }
%"struct.std::_Vector_base<std::shared_ptr<rocksdb::EventListener>, std::allocator<std::shared_ptr<rocksdb::EventListener>>>::_Vector_impl_data" = type { ptr, ptr, ptr }
%"class.std::__shared_count" = type { ptr }
%"struct.rocksdb::ImmutableDBOptions" = type { i8, i8, i8, i8, i8, i8, i8, i8, i8, ptr, %"class.std::shared_ptr.78", %"class.std::shared_ptr.81", %"class.std::shared_ptr.84", i8, i32, %"class.std::shared_ptr.87", i8, %"class.std::vector.90", %"class.std::__cxx11::basic_string", %"class.std::__cxx11::basic_string", i64, i64, i64, i64, i64, i32, i64, i64, i64, i64, i8, i8, i8, i8, i8, i8, i8, i64, %"class.std::shared_ptr.95", i8, %"class.std::vector.31", i8, i8, i8, i8, i8, i64, i64, i8, i8, i8, i8, %"class.std::shared_ptr.98", ptr, i8, i8, i8, i8, i8, i8, i8, i8, i8, i8, i8, i8, i8, i8, i64, %"class.std::shared_ptr.101", i8, i32, i64, i8, %"class.std::__cxx11::basic_string", %"class.rocksdb::SmallEnumSet", i8, %"class.std::shared_ptr.104", i8, i64, i64, i64, i8, i8, %"class.std::shared_ptr.107", ptr, ptr, ptr }
%"class.std::shared_ptr.78" = type { %"class.std::__shared_ptr.79" }
%"class.std::__shared_ptr.79" = type { ptr, %"class.std::__shared_count" }
%"class.std::shared_ptr.81" = type { %"class.std::__shared_ptr.82" }
%"class.std::__shared_ptr.82" = type { ptr, %"class.std::__shared_count" }
%"class.std::shared_ptr.84" = type { %"class.std::__shared_ptr.85" }
%"class.std::__shared_ptr.85" = type { ptr, %"class.std::__shared_count" }
%"class.std::shared_ptr.87" = type { %"class.std::__shared_ptr.88" }
%"class.std::__shared_ptr.88" = type { ptr, %"class.std::__shared_count" }
%"class.std::vector.90" = type { %"struct.std::_Vector_base.91" }
%"struct.std::_Vector_base.91" = type { %"struct.std::_Vector_base<rocksdb::DbPath, std::allocator<rocksdb::DbPath>>::_Vector_impl" }
%"struct.std::_Vector_base<rocksdb::DbPath, std::allocator<rocksdb::DbPath>>::_Vector_impl" = type { %"struct.std::_Vector_base<rocksdb::DbPath, std::allocator<rocksdb::DbPath>>::_Vector_impl_data" }
%"struct.std::_Vector_base<rocksdb::DbPath, std::allocator<rocksdb::DbPath>>::_Vector_impl_data" = type { ptr, ptr, ptr }
%"class.std::shared_ptr.95" = type { %"class.std::__shared_ptr.96" }
%"class.std::__shared_ptr.96" = type { ptr, %"class.std::__shared_count" }
%"class.std::shared_ptr.98" = type { %"class.std::__shared_ptr.99" }
%"class.std::__shared_ptr.99" = type { ptr, %"class.std::__shared_count" }
%"class.std::shared_ptr.101" = type { %"class.std::__shared_ptr.102" }
%"class.std::__shared_ptr.102" = type { ptr, %"class.std::__shared_count" }
%"class.rocksdb::SmallEnumSet" = type { i64 }
%"class.std::shared_ptr.104" = type { %"class.std::__shared_ptr.105" }
%"class.std::__shared_ptr.105" = type { ptr, %"class.std::__shared_count" }
%"class.std::shared_ptr.107" = type { %"class.std::__shared_ptr.108" }
%"class.std::__shared_ptr.108" = type { ptr, %"class.std::__shared_count" }

; Function Attrs: inlinehint mustprogress nounwind uwtable
define linkonce_odr noundef ptr @_ZN7rocksdb22static_cast_with_checkINS_18SstFileManagerImplENS_14SstFileManagerEEEPT_PT0_(ptr noundef %0) #1 comdat {
  %2 = alloca ptr, align 8
  %3 = alloca ptr, align 8
  store ptr %0, ptr %2, align 8, !tbaa !272
  call void @llvm.lifetime.start.p0(i64 8, ptr %3) #4
  %4 = load ptr, ptr %2, align 8, !tbaa !272
  store ptr %4, ptr %3, align 8, !tbaa !233
  %5 = load ptr, ptr %3, align 8, !tbaa !233
  call void @llvm.lifetime.end.p0(i64 8, ptr %3) #4
  ret ptr %5
}

; Function Attrs: mustprogress nounwind uwtable
define linkonce_odr noundef ptr @_ZNKSt12__shared_ptrIN7rocksdb14SstFileManagerELN9__gnu_cxx12_Lock_policyE2EE3getEv(ptr noundef nonnull align 8 dereferenceable(16) %0) #3 comdat align 2 {
  %2 = alloca ptr, align 8
  store ptr %0, ptr %2, align 8, !tbaa !273
  %3 = load ptr, ptr %2, align 8
  %4 = getelementptr inbounds nuw %"class.std::__shared_ptr.82", ptr %3, i32 0, i32 0
  %5 = load ptr, ptr %4, align 8, !tbaa !275
  ret ptr %5
}

; Function Attrs: mustprogress uwtable
define void @_ZN7rocksdb12DeleteDBFileEPKNS_18ImmutableDBOptionsERKNSt7__cxx1112basic_stringIcSt11char_traitsIcESaIcEEESA_bb(ptr dead_on_unwind noalias writable sret(%"class.rocksdb::Status") align 8 %0, ptr noundef %1, ptr noundef nonnull align 8 dereferenceable(32) %2, ptr noundef nonnull align 8 dereferenceable(32) %3, i1 noundef zeroext %4, i1 noundef zeroext %5) #5 {
  %7 = alloca ptr, align 8
  %8 = alloca ptr, align 8
  %9 = alloca ptr, align 8
  %10 = alloca ptr, align 8
  %11 = alloca i8, align 1
  %12 = alloca i8, align 1
  %13 = alloca ptr, align 8
  %14 = alloca i32, align 4
  store ptr %0, ptr %7, align 8
  store ptr %1, ptr %8, align 8, !tbaa !231
  store ptr %2, ptr %9, align 8, !tbaa !29
  store ptr %3, ptr %10, align 8, !tbaa !29
  %15 = zext i1 %4 to i8
  store i8 %15, ptr %11, align 1, !tbaa !58
  %16 = zext i1 %5 to i8
  store i8 %16, ptr %12, align 1, !tbaa !58
  call void @llvm.lifetime.start.p0(i64 8, ptr %13) #4
  %17 = load ptr, ptr %8, align 8, !tbaa !231
  %18 = getelementptr inbounds nuw %"struct.rocksdb::ImmutableDBOptions", ptr %17, i32 0, i32 11
  %19 = call noundef ptr @_ZNKSt12__shared_ptrIN7rocksdb14SstFileManagerELN9__gnu_cxx12_Lock_policyE2EE3getEv(ptr noundef nonnull align 8 dereferenceable(16) %18) #4
  %20 = call noundef ptr @_ZN7rocksdb22static_cast_with_checkINS_18SstFileManagerImplENS_14SstFileManagerEEEPT_PT0_(ptr noundef %19)
  store ptr %20, ptr %13, align 8, !tbaa !233
  %21 = load ptr, ptr %13, align 8, !tbaa !233
  %22 = icmp ne ptr %21, null
  br i1 %22, label %23, label %35

23:                                               ; preds = %6
  %24 = load i8, ptr %12, align 1, !tbaa !58, !range !85, !noundef !86
  %25 = trunc i8 %24 to i1
  br i1 %25, label %35, label %26

26:                                               ; preds = %23
  %27 = load ptr, ptr %13, align 8, !tbaa !233
  %28 = load ptr, ptr %9, align 8, !tbaa !29
  %29 = load ptr, ptr %10, align 8, !tbaa !29
  %30 = load i8, ptr %11, align 1, !tbaa !58, !range !85, !noundef !86
  %31 = trunc i8 %30 to i1
  %32 = load ptr, ptr %27, align 8, !tbaa !81
  %33 = getelementptr inbounds ptr, ptr %32, i64 14
  %34 = load ptr, ptr %33, align 8
  call void %34(ptr dead_on_unwind writable sret(%"class.rocksdb::Status") align 8 %0, ptr noundef nonnull align 8 dereferenceable(856) %27, ptr noundef nonnull align 8 dereferenceable(32) %28, ptr noundef nonnull align 8 dereferenceable(32) %29, i1 noundef zeroext %31)
  store i32 1, ptr %14, align 4
  br label %43

35:                                               ; preds = %23, %6
  %36 = load ptr, ptr %8, align 8, !tbaa !231
  %37 = getelementptr inbounds nuw %"struct.rocksdb::ImmutableDBOptions", ptr %36, i32 0, i32 9
  %38 = load ptr, ptr %37, align 8, !tbaa !235
  %39 = load ptr, ptr %9, align 8, !tbaa !29
  %40 = load ptr, ptr %38, align 8, !tbaa !81
  %41 = getelementptr inbounds ptr, ptr %40, i64 32
  %42 = load ptr, ptr %41, align 8
  call void %42(ptr dead_on_unwind writable sret(%"class.rocksdb::Status") align 8 %0, ptr noundef nonnull align 8 dereferenceable(72) %38, ptr noundef nonnull align 8 dereferenceable(32) %39)
  store i32 1, ptr %14, align 4
  br label %43

43:                                               ; preds = %35, %26
  call void @llvm.lifetime.end.p0(i64 8, ptr %13) #4
  ret void
}