; Function Attrs: mustprogress uwtable
define void @_ZN7rocksdb12DeleteDBFileEPKNS_18ImmutableDBOptionsERKNSt7__cxx1112basic_stringIcSt11char_traitsIcESaIcEEESA_bb(ptr dead_on_unwind noalias writable sret(%"class.rocksdb::Status") align 8 %0, ptr noundef readonly captures(none) %1, ptr noundef nonnull align 8 dereferenceable(32) %2, ptr noundef nonnull align 8 dereferenceable(32) %3, i1 noundef zeroext %4, i1 noundef zeroext %5) local_unnamed_addr #4 {
  %7 = getelementptr inbounds nuw i8, ptr %1, i64 40
  %8 = load ptr, ptr %7, align 8, !tbaa !226
  %.not = icmp eq ptr %8, null
  %brmerge = or i1 %5, %.not
  br i1 %brmerge, label %13, label %9

9:                                                ; preds = %6
  %10 = load ptr, ptr %8, align 8, !tbaa !54
  %11 = getelementptr inbounds nuw i8, ptr %10, i64 112
  %12 = load ptr, ptr %11, align 8
  tail call void %12(ptr dead_on_unwind writable sret(%"class.rocksdb::Status") align 8 %0, ptr noundef nonnull align 8 dereferenceable(856) %8, ptr noundef nonnull align 8 dereferenceable(32) %2, ptr noundef nonnull align 8 dereferenceable(32) %3, i1 noundef zeroext %4)
  br label %19

13:                                               ; preds = %6
  %14 = getelementptr inbounds nuw i8, ptr %1, i64 16
  %15 = load ptr, ptr %14, align 8, !tbaa !229
  %16 = load ptr, ptr %15, align 8, !tbaa !54
  %17 = getelementptr inbounds nuw i8, ptr %16, i64 256
  %18 = load ptr, ptr %17, align 8
  tail call void %18(ptr dead_on_unwind writable sret(%"class.rocksdb::Status") align 8 %0, ptr noundef nonnull align 8 dereferenceable(72) %15, ptr noundef nonnull align 8 dereferenceable(32) %2)
  br label %19

19:                                               ; preds = %13, %9
  ret void
}